target datalayout = "e-m:e-p270:32:32-p271:32:32-p272:64:64-i64:64-i128:128-f80:128-n8:16:32:64-S128"
target triple = "x86_64-pc-linux-gnu"

; Function Attrs: nounwind uwtable
define dso_local void @makePath(i32 noundef %0, ptr noundef %1) #0 {
  %3 = alloca i32, align 4
  %4 = alloca ptr, align 8
  %5 = alloca i32, align 4
  store i32 %0, ptr %3, align 4, !tbaa !4
  store ptr %1, ptr %4, align 8, !tbaa !8
  %6 = load i32, ptr %3, align 4, !tbaa !4
  %7 = icmp eq i32 %6, 1
  br i1 %7, label %8, label %10

8:                                                ; preds = %2
  %9 = load ptr, ptr %4, align 8, !tbaa !8
  call void %9(i32 noundef 1, i32 noundef 0)
  br label %24

10:                                               ; preds = %2
  call void @llvm.lifetime.start.p0(i64 4, ptr %5) #11
  store i32 2, ptr %5, align 4, !tbaa !4
  br label %11

11:                                               ; preds = %21, %10
  %12 = load i32, ptr %5, align 4, !tbaa !4
  %13 = load i32, ptr %3, align 4, !tbaa !4
  %14 = icmp ule i32 %12, %13
  br i1 %14, label %16, label %15

15:                                               ; preds = %11
  call void @llvm.lifetime.end.p0(i64 4, ptr %5) #11
  br label %24

16:                                               ; preds = %11
  %17 = load ptr, ptr %4, align 8, !tbaa !8
  %18 = load i32, ptr %5, align 4, !tbaa !4
  %19 = sub i32 %18, 1
  %20 = load i32, ptr %5, align 4, !tbaa !4
  call void %17(i32 noundef %19, i32 noundef %20)
  br label %21

21:                                               ; preds = %16
  %22 = load i32, ptr %5, align 4, !tbaa !4
  %23 = add i32 %22, 1
  store i32 %23, ptr %5, align 4, !tbaa !4
  br label %11, !llvm.loop !10

24:                                               ; preds = %8, %15
  ret void
}

; Function Attrs: nounwind uwtable
define dso_local void @makeBinaryTree(i32 noundef %0, ptr noundef %1) #0 {
  %3 = alloca i32, align 4
  %4 = alloca ptr, align 8
  %5 = alloca i32, align 4
  %6 = alloca i32, align 4
  store i32 %0, ptr %3, align 4, !tbaa !4
  store ptr %1, ptr %4, align 8, !tbaa !8
  call void @llvm.lifetime.start.p0(i64 4, ptr %5) #11
  %7 = load i32, ptr %3, align 4, !tbaa !4
  %8 = shl i32 1, %7
  %9 = sub i32 %8, 1
  store i32 %9, ptr %5, align 4, !tbaa !4
  call void @llvm.lifetime.start.p0(i64 4, ptr %6) #11
  store i32 1, ptr %6, align 4, !tbaa !4
  br label %10

10:                                               ; preds = %25, %2
  %11 = load i32, ptr %6, align 4, !tbaa !4
  %12 = load i32, ptr %5, align 4, !tbaa !4
  %13 = icmp ule i32 %11, %12
  br i1 %13, label %15, label %14

14:                                               ; preds = %10
  call void @llvm.lifetime.end.p0(i64 4, ptr %6) #11
  br label %28

15:                                               ; preds = %10
  %16 = load ptr, ptr %4, align 8, !tbaa !8
  %17 = load i32, ptr %6, align 4, !tbaa !4
  %18 = load i32, ptr %6, align 4, !tbaa !4
  %19 = mul i32 2, %18
  call void %16(i32 noundef %17, i32 noundef %19)
  %20 = load ptr, ptr %4, align 8, !tbaa !8
  %21 = load i32, ptr %6, align 4, !tbaa !4
  %22 = load i32, ptr %6, align 4, !tbaa !4
  %23 = mul i32 2, %22
  %24 = add i32 %23, 1
  call void %20(i32 noundef %21, i32 noundef %24)
  br label %25

25:                                               ; preds = %15
  %26 = load i32, ptr %6, align 4, !tbaa !4
  %27 = add i32 %26, 1
  store i32 %27, ptr %6, align 4, !tbaa !4
  br label %10, !llvm.loop !37

28:                                               ; preds = %14
  call void @llvm.lifetime.end.p0(i64 4, ptr %5) #11
  ret void
}

; Function Attrs: nounwind uwtable
define dso_local void @makeRandom(i32 noundef %0, i32 noundef %1, ptr noundef %2) #0 {
  %4 = alloca i32, align 4
  %5 = alloca i32, align 4
  %6 = alloca ptr, align 8
  %7 = alloca i32, align 4
  %8 = alloca i32, align 4
  %9 = alloca i32, align 4
  %10 = alloca i32, align 4
  %11 = alloca i32, align 4
  %12 = alloca i32, align 4
  %13 = alloca i32, align 4
  store i32 %0, ptr %4, align 4, !tbaa !4
  store i32 %1, ptr %5, align 4, !tbaa !4
  store ptr %2, ptr %6, align 8, !tbaa !8
  %14 = call i64 @time(ptr noundef null) #11
  %15 = trunc i64 %14 to i32
  call void @srand(i32 noundef %15) #11
  call void @llvm.lifetime.start.p0(i64 4, ptr %7) #11
  %16 = call i32 @rand() #11
  %17 = srem i32 %16, 2
  store i32 %17, ptr %7, align 4, !tbaa !4
  call void @llvm.lifetime.start.p0(i64 4, ptr %8) #11
  store i32 0, ptr %8, align 4, !tbaa !4
  call void @llvm.lifetime.start.p0(i64 4, ptr %9) #11
  store i32 0, ptr %9, align 4, !tbaa !4
  br label %18

18:                                               ; preds = %22, %3
  %19 = load i32, ptr %8, align 4, !tbaa !4
  %20 = load i32, ptr %4, align 4, !tbaa !4
  %21 = icmp ule i32 %19, %20
  br i1 %21, label %22, label %29

22:                                               ; preds = %18
  %23 = load i32, ptr %9, align 4, !tbaa !4
  %24 = shl i32 1, %23
  %25 = load i32, ptr %8, align 4, !tbaa !4
  %26 = add i32 %25, %24
  store i32 %26, ptr %8, align 4, !tbaa !4
  %27 = load i32, ptr %9, align 4, !tbaa !4
  %28 = add i32 %27, 1
  store i32 %28, ptr %9, align 4, !tbaa !4
  br label %18, !llvm.loop !58

29:                                               ; preds = %18
  %30 = load i32, ptr %9, align 4, !tbaa !4
  %31 = add i32 %30, -1
  store i32 %31, ptr %9, align 4, !tbaa !4
  %32 = load i32, ptr %8, align 4, !tbaa !4
  %33 = load i32, ptr %4, align 4, !tbaa !4
  %34 = icmp ugt i32 %32, %33
  br i1 %34, label %35, label %42

35:                                               ; preds = %29
  %36 = load i32, ptr %9, align 4, !tbaa !4
  %37 = shl i32 1, %36
  %38 = load i32, ptr %8, align 4, !tbaa !4
  %39 = sub i32 %38, %37
  store i32 %39, ptr %8, align 4, !tbaa !4
  %40 = load i32, ptr %9, align 4, !tbaa !4
  %41 = add i32 %40, -1
  store i32 %41, ptr %9, align 4, !tbaa !4
  br label %42

42:                                               ; preds = %35, %29
  %43 = load i32, ptr %7, align 4, !tbaa !4
  %44 = icmp ne i32 %43, 0
  br i1 %44, label %45, label %48

45:                                               ; preds = %42
  %46 = load i32, ptr %9, align 4, !tbaa !4
  %47 = load ptr, ptr %6, align 8, !tbaa !8
  call void @makeBinaryTree(i32 noundef %46, ptr noundef %47)
  br label %51

48:                                               ; preds = %42
  %49 = load i32, ptr %8, align 4, !tbaa !4
  %50 = load ptr, ptr %6, align 8, !tbaa !8
  call void @makePath(i32 noundef %49, ptr noundef %50)
  br label %51

51:                                               ; preds = %48, %45
  call void @llvm.lifetime.start.p0(i64 4, ptr %10) #11
  store i32 3, ptr %10, align 4, !tbaa !4
  br label %52

52:                                               ; preds = %101, %51
  %53 = load i32, ptr %10, align 4, !tbaa !4
  %54 = load i32, ptr %8, align 4, !tbaa !4
  %55 = icmp ule i32 %53, %54
  br i1 %55, label %57, label %56

56:                                               ; preds = %52
  store i32 4, ptr %11, align 4
  call void @llvm.lifetime.end.p0(i64 4, ptr %10) #11
  br label %104

57:                                               ; preds = %52
  call void @llvm.lifetime.start.p0(i64 4, ptr %12) #11
  store i32 1, ptr %12, align 4, !tbaa !4
  br label %58

58:                                               ; preds = %97, %57
  %59 = load i32, ptr %12, align 4, !tbaa !4
  %60 = add i32 %59, 1
  %61 = load i32, ptr %10, align 4, !tbaa !4
  %62 = icmp ult i32 %60, %61
  br i1 %62, label %64, label %63

63:                                               ; preds = %58
  store i32 7, ptr %11, align 4
  call void @llvm.lifetime.end.p0(i64 4, ptr %12) #11
  br label %100

64:                                               ; preds = %58
  call void @llvm.lifetime.start.p0(i64 4, ptr %13) #11
  %65 = call i32 @rand() #11
  %66 = load i32, ptr %8, align 4, !tbaa !4
  %67 = load i32, ptr %8, align 4, !tbaa !4
  %68 = mul i32 %66, %67
  %69 = urem i32 %65, %68
  store i32 %69, ptr %13, align 4, !tbaa !4
  %70 = load i32, ptr %13, align 4, !tbaa !4
  %71 = load i32, ptr %5, align 4, !tbaa !4
  %72 = load i32, ptr %5, align 4, !tbaa !4
  %73 = mul i32 %71, %72
  %74 = icmp ule i32 %70, %73
  br i1 %74, label %75, label %88

75:                                               ; preds = %64
  %76 = load i32, ptr %10, align 4, !tbaa !4
  %77 = icmp ult i32 %76, 5
  br i1 %77, label %92, label %78

78:                                               ; preds = %75
  %79 = load i32, ptr %10, align 4, !tbaa !4
  %80 = add i32 %79, 4
  %81 = load i32, ptr %4, align 4, !tbaa !4
  %82 = icmp ugt i32 %80, %81
  br i1 %82, label %83, label %88

83:                                               ; preds = %78
  %84 = load i32, ptr %12, align 4, !tbaa !4
  %85 = add i32 %84, 4
  %86 = load i32, ptr %4, align 4, !tbaa !4
  %87 = icmp ugt i32 %85, %86
  br i1 %87, label %92, label %88

88:                                               ; preds = %83, %78, %64
  %89 = load i32, ptr %13, align 4, !tbaa !4
  %90 = load i32, ptr %5, align 4, !tbaa !4
  %91 = icmp ule i32 %89, %90
  br i1 %91, label %92, label %96

92:                                               ; preds = %88, %83, %75
  %93 = load ptr, ptr %6, align 8, !tbaa !8
  %94 = load i32, ptr %12, align 4, !tbaa !4
  %95 = load i32, ptr %10, align 4, !tbaa !4
  call void %93(i32 noundef %94, i32 noundef %95)
  br label %96

96:                                               ; preds = %92, %88
  call void @llvm.lifetime.end.p0(i64 4, ptr %13) #11
  br label %97

97:                                               ; preds = %96
  %98 = load i32, ptr %12, align 4, !tbaa !4
  %99 = add i32 %98, 1
  store i32 %99, ptr %12, align 4, !tbaa !4
  br label %58, !llvm.loop !59

100:                                              ; preds = %63
  br label %101

101:                                              ; preds = %100
  %102 = load i32, ptr %10, align 4, !tbaa !4
  %103 = add i32 %102, 1
  store i32 %103, ptr %10, align 4, !tbaa !4
  br label %52, !llvm.loop !60

104:                                              ; preds = %56
  call void @llvm.lifetime.end.p0(i64 4, ptr %9) #11
  call void @llvm.lifetime.end.p0(i64 4, ptr %8) #11
  call void @llvm.lifetime.end.p0(i64 4, ptr %7) #11
  ret void
}