; Function Attrs: nounwind uwtable
define dso_local void @makeRandom(i32 noundef %0, i32 noundef %1, ptr noundef readonly captures(none) %2) local_unnamed_addr #0 {
  %4 = tail call i64 @time(ptr noundef null) #15
  %5 = trunc i64 %4 to i32
  tail call void @srand(i32 noundef %5) #15
  %6 = tail call i32 @rand() #15
  br label %7

7:                                                ; preds = %3, %7
  %.054 = phi i32 [ 0, %3 ], [ %9, %7 ]
  %.03853 = phi i32 [ 0, %3 ], [ %10, %7 ]
  %8 = shl nuw i32 1, %.03853
  %9 = add i32 %.054, %8
  %10 = add i32 %.03853, 1
  %.not = icmp ugt i32 %9, %0
  br i1 %.not, label %11, label %7, !llvm.loop !52

11:                                               ; preds = %7
  %12 = add i32 %.03853, -1
  %13 = and i32 %6, 1
  %.not42 = icmp eq i32 %13, 0
  br i1 %.not42, label %18, label %14

14:                                               ; preds = %11
  %.not.not10.not.i = icmp eq i32 %12, 0
  br i1 %.not.not10.not.i, label %makeBinaryTree.exit, label %.lr.ph.i

.lr.ph.i:                                         ; preds = %14, %.lr.ph.i
  %.011.i = phi i32 [ %17, %.lr.ph.i ], [ 1, %14 ]
  %15 = shl i32 %.011.i, 1
  tail call void %2(i32 noundef %.011.i, i32 noundef %15) #15
  %16 = or disjoint i32 %15, 1
  tail call void %2(i32 noundef %.011.i, i32 noundef %16) #15
  %17 = add i32 %.011.i, 1
  %.0.highbits.i = lshr i32 %17, %12
  %.not.not.i = icmp eq i32 %.0.highbits.i, 0
  br i1 %.not.not.i, label %.lr.ph.i, label %makeBinaryTree.exit, !llvm.loop !34

18:                                               ; preds = %11
  switch i32 %.054, label %.lr.ph.i48 [
    i32 1, label %19
    i32 0, label %._crit_edge59
  ]

19:                                               ; preds = %18
  tail call void %2(i32 noundef 1, i32 noundef 0) #15
  br label %._crit_edge59

.lr.ph.i48:                                       ; preds = %18, %.lr.ph.i48
  %.09.i = phi i32 [ %21, %.lr.ph.i48 ], [ 2, %18 ]
  %20 = add i32 %.09.i, -1
  tail call void %2(i32 noundef %20, i32 noundef %.09.i) #15
  %21 = add i32 %.09.i, 1
  %.not.i = icmp ugt i32 %21, %.054
  br i1 %.not.i, label %makeBinaryTree.exit, label %.lr.ph.i48, !llvm.loop !4

makeBinaryTree.exit:                              ; preds = %.lr.ph.i, %.lr.ph.i48, %14
  %.not4356 = icmp ult i32 %.054, 3
  br i1 %.not4356, label %._crit_edge59, label %.preheader.lr.ph

.preheader.lr.ph:                                 ; preds = %makeBinaryTree.exit
  %22 = mul i32 %.054, %.054
  %23 = mul i32 %1, %1
  %invariant.umax = tail call i32 @llvm.umax.i32(i32 %23, i32 %1)
  br label %.preheader

.preheader:                                       ; preds = %.preheader.lr.ph, %._crit_edge
  %.03757 = phi i32 [ 3, %.preheader.lr.ph ], [ %34, %._crit_edge ]
  %24 = icmp ugt i32 %.03757, 2
  br i1 %24, label %.lr.ph, label %._crit_edge

.lr.ph:                                           ; preds = %.preheader
  %25 = icmp ult i32 %.03757, 5
  %26 = add i32 %.03757, 4
  %27 = icmp ule i32 %26, %0
  br i1 %25, label %.lr.ph.split.us, label %.lr.ph.split

.lr.ph.split.us:                                  ; preds = %.lr.ph, %32
  %28 = phi i32 [ %33, %32 ], [ 2, %.lr.ph ]
  %.03655.us = phi i32 [ %28, %32 ], [ 1, %.lr.ph ]
  %29 = tail call i32 @rand() #15
  %30 = urem i32 %29, %22
  %or.cond = icmp ugt i32 %30, %invariant.umax
  br i1 %or.cond, label %32, label %31

31:                                               ; preds = %.lr.ph.split.us
  tail call void %2(i32 noundef %.03655.us, i32 noundef %.03757) #15
  br label %32

32:                                               ; preds = %.lr.ph.split.us, %31
  %33 = add nuw i32 %28, 1
  %exitcond62.not = icmp eq i32 %33, %.03757
  br i1 %exitcond62.not, label %._crit_edge, label %.lr.ph.split.us, !llvm.loop !53

._crit_edge59:                                    ; preds = %._crit_edge, %18, %19, %makeBinaryTree.exit
  ret void

._crit_edge:                                      ; preds = %43, %32, %.preheader
  %34 = add i32 %.03757, 1
  %.not43 = icmp ugt i32 %34, %.054
  br i1 %.not43, label %._crit_edge59, label %.preheader, !llvm.loop !54

.lr.ph.split:                                     ; preds = %.lr.ph, %43
  %35 = phi i32 [ %44, %43 ], [ 2, %.lr.ph ]
  %.03655 = phi i32 [ %35, %43 ], [ 1, %.lr.ph ]
  %36 = tail call i32 @rand() #15
  %37 = urem i32 %36, %22
  %.not44 = icmp ugt i32 %37, %23
  br i1 %.not44, label %41, label %38

38:                                               ; preds = %.lr.ph.split
  %39 = add i32 %.03655, 4
  %40 = icmp ule i32 %39, %0
  %or.cond.not51 = or i1 %27, %40
  %.not45 = icmp ugt i32 %37, %1
  %or.cond47 = and i1 %or.cond.not51, %.not45
  br i1 %or.cond47, label %43, label %42

41:                                               ; preds = %.lr.ph.split
  %.not45.old = icmp ugt i32 %37, %1
  br i1 %.not45.old, label %43, label %42

42:                                               ; preds = %38, %41
  tail call void %2(i32 noundef %.03655, i32 noundef %.03757) #15
  br label %43

43:                                               ; preds = %38, %42, %41
  %44 = add nuw i32 %35, 1
  %exitcond.not = icmp eq i32 %44, %.03757
  br i1 %exitcond.not, label %._crit_edge, label %.lr.ph.split, !llvm.loop !53
}